target datalayout = "e-m:e-p270:32:32-p271:32:32-p272:64:64-i64:64-i128:128-f80:128-n8:16:32:64-S128"
target triple = "x86_64-unknown-linux-gnu"

%"class.rocksdb::Status" = type { i8, i8, i8, i8, i8, i8, %"class.std::unique_ptr" }
%"class.std::unique_ptr" = type { %"struct.std::__uniq_ptr_data" }
%"struct.std::__uniq_ptr_data" = type { %"class.std::__uniq_ptr_impl" }
%"class.std::__uniq_ptr_impl" = type { %"class.std::tuple" }
%"class.std::tuple" = type { %"struct.std::_Tuple_impl" }
%"struct.std::_Tuple_impl" = type { %"struct.std::_Head_base.1" }
%"struct.std::_Head_base.1" = type { ptr }
%"struct.rocksdb::TransactionDBWriteOptimizations" = type { i8, i8 }

; Function Attrs: mustprogress uwtable
define void @_ZN7rocksdb18WritePreparedTxnDB5WriteERKNS_12WriteOptionsERKNS_31TransactionDBWriteOptimizationsEPNS_10WriteBatchE(ptr noalias sret(%"class.rocksdb::Status") align 8 %agg.result, ptr noundef nonnull align 8 dereferenceable(1352) %this, ptr noundef nonnull align 8 dereferenceable(24) %opts, ptr noundef nonnull align 1 dereferenceable(2) %optimizations, ptr noundef %updates) unnamed_addr #0 align 2 {
entry:
  %result.ptr = alloca ptr, align 8
  %this.addr = alloca ptr, align 8
  %opts.addr = alloca ptr, align 8
  %optimizations.addr = alloca ptr, align 8
  %updates.addr = alloca ptr, align 8
  %UNKNOWN_BATCH_CNT = alloca i64, align 8
  %ONE_BATCH_CNT = alloca i64, align 8
  %batch_cnt = alloca i64, align 8
  %NO_TXN = alloca ptr, align 8
  store ptr %agg.result, ptr %result.ptr, align 8
  store ptr %this, ptr %this.addr, align 8
  store ptr %opts, ptr %opts.addr, align 8
  store ptr %optimizations, ptr %optimizations.addr, align 8
  store ptr %updates, ptr %updates.addr, align 8
  %this1 = load ptr, ptr %this.addr, align 8
  %0 = load ptr, ptr %optimizations.addr, align 8
  %skip_concurrency_control = getelementptr inbounds %"struct.rocksdb::TransactionDBWriteOptimizations", ptr %0, i32 0, i32 0
  %1 = load i8, ptr %skip_concurrency_control, align 1
  %tobool = trunc i8 %1 to i1
  br i1 %tobool, label %if.then, label %if.else

if.then:                                          ; preds = %entry
  store i64 0, ptr %UNKNOWN_BATCH_CNT, align 8
  store i64 1, ptr %ONE_BATCH_CNT, align 8
  %2 = load ptr, ptr %optimizations.addr, align 8
  %skip_duplicate_key_check = getelementptr inbounds %"struct.rocksdb::TransactionDBWriteOptimizations", ptr %2, i32 0, i32 1
  %3 = load i8, ptr %skip_duplicate_key_check, align 1
  %tobool2 = trunc i8 %3 to i1
  %cond = select i1 %tobool2, i64 1, i64 0
  store i64 %cond, ptr %batch_cnt, align 8
  store ptr null, ptr %NO_TXN, align 8
  %4 = load ptr, ptr %opts.addr, align 8
  %5 = load ptr, ptr %updates.addr, align 8
  %6 = load i64, ptr %batch_cnt, align 8
  %7 = load ptr, ptr %NO_TXN, align 8
  call void @_ZN7rocksdb18WritePreparedTxnDB13WriteInternalERKNS_12WriteOptionsEPNS_10WriteBatchEmPNS_16WritePreparedTxnE(ptr sret(%"class.rocksdb::Status") align 8 %agg.result, ptr noundef nonnull align 8 dereferenceable(1352) %this1, ptr noundef nonnull align 8 dereferenceable(24) %4, ptr noundef %5, i64 noundef %6, ptr noundef %7)
  br label %return

if.else:                                          ; preds = %entry
  %8 = load ptr, ptr %opts.addr, align 8
  %9 = load ptr, ptr %updates.addr, align 8
  call void @_ZN7rocksdb24PessimisticTransactionDB27WriteWithConcurrencyControlERKNS_12WriteOptionsEPNS_10WriteBatchE(ptr sret(%"class.rocksdb::Status") align 8 %agg.result, ptr noundef nonnull align 8 dereferenceable(480) %this1, ptr noundef nonnull align 8 dereferenceable(24) %8, ptr noundef %9)
  br label %return

return:                                           ; preds = %if.else, %if.then
  ret void
}