; Function Attrs: mustprogress uwtable
define void @_ZN7rocksdb18WritePreparedTxnDB5WriteERKNS_12WriteOptionsERKNS_31TransactionDBWriteOptimizationsEPNS_10WriteBatchE(ptr noalias sret(%"class.rocksdb::Status") align 8 %agg.result, ptr noundef nonnull align 8 dereferenceable(1352) %this, ptr noundef nonnull align 8 dereferenceable(24) %opts, ptr nocapture noundef nonnull readonly align 1 dereferenceable(2) %optimizations, ptr noundef %updates) unnamed_addr #2 align 2 {
entry:
  %0 = load i8, ptr %optimizations, align 1
  %1 = and i8 %0, 1
  %tobool.not = icmp eq i8 %1, 0
  br i1 %tobool.not, label %if.else, label %if.then

if.then:                                          ; preds = %entry
  %skip_duplicate_key_check = getelementptr inbounds i8, ptr %optimizations, i64 1
  %2 = load i8, ptr %skip_duplicate_key_check, align 1
  %3 = and i8 %2, 1
  %cond = zext nneg i8 %3 to i64
  tail call void @_ZN7rocksdb18WritePreparedTxnDB13WriteInternalERKNS_12WriteOptionsEPNS_10WriteBatchEmPNS_16WritePreparedTxnE(ptr sret(%"class.rocksdb::Status") align 8 %agg.result, ptr noundef nonnull align 8 dereferenceable(1352) %this, ptr noundef nonnull align 8 dereferenceable(24) %opts, ptr noundef %updates, i64 noundef %cond, ptr noundef null)
  br label %return

if.else:                                          ; preds = %entry
  tail call void @_ZN7rocksdb24PessimisticTransactionDB27WriteWithConcurrencyControlERKNS_12WriteOptionsEPNS_10WriteBatchE(ptr sret(%"class.rocksdb::Status") align 8 %agg.result, ptr noundef nonnull align 8 dereferenceable(480) %this, ptr noundef nonnull align 8 dereferenceable(24) %opts, ptr noundef %updates)
  br label %return

return:                                           ; preds = %if.else, %if.then
  ret void
}